target datalayout = "e-m:e-p270:32:32-p271:32:32-p272:64:64-i64:64-i128:128-f80:128-n8:16:32:64-S128"
target triple = "x86_64-pc-linux-gnu"

%struct.tvb_ops = type { i64, ptr, ptr, ptr, ptr, ptr, ptr, ptr }
%struct.tvbuff = type { ptr, ptr, i8, i32, ptr, ptr, i32, i32, i32, i32 }
%struct.tvb_subset = type { %struct.tvbuff, %struct.tvb_backing_t }
%struct.tvb_backing_t = type { ptr, i32, i32 }

@.str = private unnamed_addr constant [29 x i8] c"%s:%u: failed assertion \22%s\22\00", align 1
@.str.1 = private unnamed_addr constant [21 x i8] c"epan/tvbuff_subset.c\00", align 1
@.str.2 = private unnamed_addr constant [32 x i8] c"backing && backing->initialized\00", align 1
@tvb_subset_ops = internal constant %struct.tvb_ops { i64 72, ptr null, ptr @subset_offset, ptr @subset_get_ptr, ptr @subset_memcpy, ptr @subset_find_uint8, ptr @subset_pbrk_uint8, ptr @subset_clone }, align 8

; Function Attrs: null_pointer_is_valid sspstrong uwtable
define internal ptr @tvb_new_with_subset(ptr noundef %0, i32 noundef %1, i32 noundef %2, i32 noundef %3) #0 {
  %5 = alloca ptr, align 8
  %6 = alloca i32, align 4
  %7 = alloca i32, align 4
  %8 = alloca i32, align 4
  %9 = alloca ptr, align 8
  %10 = alloca ptr, align 8
  store ptr %0, ptr %5, align 8
  store i32 %1, ptr %6, align 4
  store i32 %2, ptr %7, align 4
  store i32 %3, ptr %8, align 4
  call void @llvm.lifetime.start.p0(i64 8, ptr %9) #4
  %11 = call ptr @tvb_new(ptr noundef @tvb_subset_ops)
  store ptr %11, ptr %9, align 8
  call void @llvm.lifetime.start.p0(i64 8, ptr %10) #4
  %12 = load ptr, ptr %9, align 8
  store ptr %12, ptr %10, align 8
  %13 = load i32, ptr %7, align 4
  %14 = load ptr, ptr %10, align 8
  %15 = getelementptr inbounds nuw %struct.tvb_subset, ptr %14, i32 0, i32 1
  %16 = getelementptr inbounds nuw %struct.tvb_backing_t, ptr %15, i32 0, i32 1
  store i32 %13, ptr %16, align 8
  %17 = load i32, ptr %8, align 4
  %18 = load ptr, ptr %10, align 8
  %19 = getelementptr inbounds nuw %struct.tvb_subset, ptr %18, i32 0, i32 1
  %20 = getelementptr inbounds nuw %struct.tvb_backing_t, ptr %19, i32 0, i32 2
  store i32 %17, ptr %20, align 4
  %21 = load ptr, ptr %5, align 8
  %22 = load ptr, ptr %10, align 8
  %23 = getelementptr inbounds nuw %struct.tvb_subset, ptr %22, i32 0, i32 1
  %24 = getelementptr inbounds nuw %struct.tvb_backing_t, ptr %23, i32 0, i32 0
  store ptr %21, ptr %24, align 8
  %25 = load i32, ptr %8, align 4
  %26 = load ptr, ptr %9, align 8
  %27 = getelementptr inbounds nuw %struct.tvbuff, ptr %26, i32 0, i32 6
  store i32 %25, ptr %27, align 8
  %28 = load i32, ptr %6, align 4
  %29 = load ptr, ptr %5, align 8
  %30 = getelementptr inbounds nuw %struct.tvbuff, ptr %29, i32 0, i32 8
  %31 = load i32, ptr %30, align 8
  %32 = load i32, ptr %7, align 4
  %33 = sub i32 %31, %32
  %34 = icmp ult i32 %28, %33
  br i1 %34, label %35, label %37

35:                                               ; preds = %4
  %36 = load i32, ptr %6, align 4
  br label %43

37:                                               ; preds = %4
  %38 = load ptr, ptr %5, align 8
  %39 = getelementptr inbounds nuw %struct.tvbuff, ptr %38, i32 0, i32 8
  %40 = load i32, ptr %39, align 8
  %41 = load i32, ptr %7, align 4
  %42 = sub i32 %40, %41
  br label %43

43:                                               ; preds = %37, %35
  %44 = phi i32 [ %36, %35 ], [ %42, %37 ]
  %45 = load ptr, ptr %9, align 8
  %46 = getelementptr inbounds nuw %struct.tvbuff, ptr %45, i32 0, i32 8
  store i32 %44, ptr %46, align 8
  %47 = load ptr, ptr %5, align 8
  %48 = getelementptr inbounds nuw %struct.tvbuff, ptr %47, i32 0, i32 3
  %49 = load i32, ptr %48, align 4
  %50 = load ptr, ptr %9, align 8
  %51 = getelementptr inbounds nuw %struct.tvbuff, ptr %50, i32 0, i32 3
  store i32 %49, ptr %51, align 4
  %52 = load i32, ptr %6, align 4
  %53 = load ptr, ptr %9, align 8
  %54 = getelementptr inbounds nuw %struct.tvbuff, ptr %53, i32 0, i32 7
  store i32 %52, ptr %54, align 4
  %55 = load ptr, ptr %9, align 8
  %56 = getelementptr inbounds nuw %struct.tvbuff, ptr %55, i32 0, i32 2
  store i8 1, ptr %56, align 8
  %57 = load ptr, ptr %5, align 8
  %58 = getelementptr inbounds nuw %struct.tvbuff, ptr %57, i32 0, i32 5
  %59 = load ptr, ptr %58, align 8
  %60 = icmp ne ptr %59, null
  br i1 %60, label %61, label %70

61:                                               ; preds = %43
  %62 = load ptr, ptr %5, align 8
  %63 = getelementptr inbounds nuw %struct.tvbuff, ptr %62, i32 0, i32 5
  %64 = load ptr, ptr %63, align 8
  %65 = load i32, ptr %7, align 4
  %66 = zext i32 %65 to i64
  %67 = getelementptr i8, ptr %64, i64 %66
  %68 = load ptr, ptr %9, align 8
  %69 = getelementptr inbounds nuw %struct.tvbuff, ptr %68, i32 0, i32 5
  store ptr %67, ptr %69, align 8
  br label %70

70:                                               ; preds = %61, %43
  %71 = load ptr, ptr %5, align 8
  %72 = getelementptr inbounds nuw %struct.tvbuff, ptr %71, i32 0, i32 4
  %73 = load ptr, ptr %72, align 8
  %74 = load ptr, ptr %9, align 8
  %75 = getelementptr inbounds nuw %struct.tvbuff, ptr %74, i32 0, i32 4
  store ptr %73, ptr %75, align 8
  %76 = load ptr, ptr %9, align 8
  call void @llvm.lifetime.end.p0(i64 8, ptr %10) #4
  call void @llvm.lifetime.end.p0(i64 8, ptr %9) #4
  ret ptr %76
}

; Function Attrs: null_pointer_is_valid sspstrong uwtable
define ptr @tvb_new_subset_length_caplen(ptr noundef %0, i32 noundef %1, i32 noundef %2, i32 noundef %3) #0 {
  %5 = alloca ptr, align 8
  %6 = alloca i32, align 4
  %7 = alloca i32, align 4
  %8 = alloca i32, align 4
  %9 = alloca ptr, align 8
  %10 = alloca i32, align 4
  %11 = alloca i32, align 4
  %12 = alloca i32, align 4
  store ptr %0, ptr %5, align 8
  store i32 %1, ptr %6, align 4
  store i32 %2, ptr %7, align 4
  store i32 %3, ptr %8, align 4
  call void @llvm.lifetime.start.p0(i64 8, ptr %9) #4
  call void @llvm.lifetime.start.p0(i64 4, ptr %10) #4
  call void @llvm.lifetime.start.p0(i64 4, ptr %11) #4
  call void @llvm.lifetime.start.p0(i64 4, ptr %12) #4
  %13 = load ptr, ptr %5, align 8
  %14 = icmp ne ptr %13, null
  br i1 %14, label %15, label %21

15:                                               ; preds = %4
  %16 = load ptr, ptr %5, align 8
  %17 = getelementptr inbounds nuw %struct.tvbuff, ptr %16, i32 0, i32 2
  %18 = load i8, ptr %17, align 8, !range !6, !noundef !7
  %19 = trunc i8 %18 to i1
  br i1 %19, label %20, label %21

20:                                               ; preds = %15
  br label %23

21:                                               ; preds = %15, %4
  call void (ptr, ...) @proto_report_dissector_bug(ptr noundef @.str, ptr noundef @.str.1, i32 noundef 162, ptr noundef @.str.2) #5
  unreachable

22:                                               ; No predecessors!
  br label %23

23:                                               ; preds = %22, %20
  br label %24

24:                                               ; preds = %23
  %25 = load i32, ptr %8, align 4
  %26 = icmp slt i32 %25, -1
  br i1 %26, label %27, label %28

27:                                               ; preds = %24
  call void @except_throw(i64 noundef 1, i64 noundef 3, ptr noundef null) #5
  unreachable

28:                                               ; preds = %24
  br label %29

29:                                               ; preds = %28
  br label %30

30:                                               ; preds = %29
  %31 = load ptr, ptr %5, align 8
  %32 = load i32, ptr %6, align 4
  %33 = load i32, ptr %7, align 4
  call void @tvb_check_offset_length(ptr noundef %31, i32 noundef %32, i32 noundef %33, ptr noundef %10, ptr noundef %11)
  %34 = load i32, ptr %8, align 4
  %35 = icmp eq i32 %34, -1
  br i1 %35, label %36, label %42

36:                                               ; preds = %30
  %37 = load ptr, ptr %5, align 8
  %38 = getelementptr inbounds nuw %struct.tvbuff, ptr %37, i32 0, i32 7
  %39 = load i32, ptr %38, align 4
  %40 = load i32, ptr %10, align 4
  %41 = sub i32 %39, %40
  store i32 %41, ptr %12, align 4
  br label %44

42:                                               ; preds = %30
  %43 = load i32, ptr %8, align 4
  store i32 %43, ptr %12, align 4
  br label %44

44:                                               ; preds = %42, %36
  %45 = load i32, ptr %11, align 4
  %46 = load i32, ptr %12, align 4
  %47 = icmp ugt i32 %45, %46
  br i1 %47, label %48, label %50

48:                                               ; preds = %44
  %49 = load i32, ptr %12, align 4
  store i32 %49, ptr %11, align 4
  br label %50

50:                                               ; preds = %48, %44
  %51 = load ptr, ptr %5, align 8
  %52 = load i32, ptr %12, align 4
  %53 = load i32, ptr %10, align 4
  %54 = load i32, ptr %11, align 4
  %55 = call ptr @tvb_new_with_subset(ptr noundef %51, i32 noundef %52, i32 noundef %53, i32 noundef %54)
  store ptr %55, ptr %9, align 8
  %56 = load ptr, ptr %5, align 8
  %57 = load ptr, ptr %9, align 8
  call void @tvb_add_to_chain(ptr noundef %56, ptr noundef %57)
  %58 = load ptr, ptr %9, align 8
  call void @llvm.lifetime.end.p0(i64 4, ptr %12) #4
  call void @llvm.lifetime.end.p0(i64 4, ptr %11) #4
  call void @llvm.lifetime.end.p0(i64 4, ptr %10) #4
  call void @llvm.lifetime.end.p0(i64 8, ptr %9) #4
  ret ptr %58
}