; Function Attrs: null_pointer_is_valid sspstrong uwtable
define ptr @tvb_new_subset_length_caplen(ptr noundef %0, i32 noundef %1, i32 noundef %2, i32 noundef %3) local_unnamed_addr #0 {
  %5 = alloca i32, align 4
  %6 = alloca i32, align 4
  call void @llvm.lifetime.start.p0(i64 4, ptr nonnull %5) #5
  call void @llvm.lifetime.start.p0(i64 4, ptr nonnull %6) #5
  %.not = icmp eq ptr %0, null
  br i1 %.not, label %11, label %7

7:                                                ; preds = %4
  %8 = getelementptr inbounds nuw i8, ptr %0, i64 16
  %9 = load i8, ptr %8, align 8, !range !6, !noundef !7
  %10 = trunc nuw i8 %9 to i1
  br i1 %10, label %12, label %11

11:                                               ; preds = %7, %4
  tail call void (ptr, ...) @proto_report_dissector_bug(ptr noundef nonnull @.str, ptr noundef nonnull @.str.1, i32 noundef 162, ptr noundef nonnull @.str.2) #6
  unreachable

12:                                               ; preds = %7
  %13 = icmp slt i32 %3, -1
  br i1 %13, label %14, label %15

14:                                               ; preds = %12
  tail call void @except_throw(i64 noundef 1, i64 noundef 3, ptr noundef null) #6
  unreachable

15:                                               ; preds = %12
  call void @tvb_check_offset_length(ptr noundef nonnull %0, i32 noundef %1, i32 noundef %2, ptr noundef nonnull %5, ptr noundef nonnull %6)
  %16 = icmp eq i32 %3, -1
  br i1 %16, label %17, label %22

17:                                               ; preds = %15
  %18 = getelementptr inbounds nuw i8, ptr %0, i64 44
  %19 = load i32, ptr %18, align 4
  %20 = load i32, ptr %5, align 4
  %21 = sub i32 %19, %20
  br label %22

22:                                               ; preds = %15, %17
  %.0 = phi i32 [ %21, %17 ], [ %3, %15 ]
  %23 = load i32, ptr %6, align 4
  %24 = icmp ugt i32 %23, %.0
  br i1 %24, label %25, label %26

25:                                               ; preds = %22
  store i32 %.0, ptr %6, align 4
  br label %26

26:                                               ; preds = %25, %22
  %27 = phi i32 [ %.0, %25 ], [ %23, %22 ]
  %28 = load i32, ptr %5, align 4
  %29 = call ptr @tvb_new(ptr noundef nonnull @tvb_subset_ops)
  %30 = getelementptr inbounds nuw i8, ptr %29, i64 56
  %31 = getelementptr inbounds nuw i8, ptr %29, i64 64
  store i32 %28, ptr %31, align 8
  %32 = getelementptr inbounds nuw i8, ptr %29, i64 68
  store i32 %27, ptr %32, align 4
  store ptr %0, ptr %30, align 8
  %33 = getelementptr inbounds nuw i8, ptr %29, i64 40
  store i32 %27, ptr %33, align 8
  %34 = getelementptr inbounds nuw i8, ptr %0, i64 48
  %35 = load i32, ptr %34, align 8
  %36 = sub i32 %35, %28
  %..i = call i32 @llvm.umin.i32(i32 %.0, i32 %36)
  %37 = getelementptr inbounds nuw i8, ptr %29, i64 48
  store i32 %..i, ptr %37, align 8
  %38 = getelementptr inbounds nuw i8, ptr %0, i64 20
  %39 = load i32, ptr %38, align 4
  %40 = getelementptr inbounds nuw i8, ptr %29, i64 20
  store i32 %39, ptr %40, align 4
  %41 = getelementptr inbounds nuw i8, ptr %29, i64 44
  store i32 %.0, ptr %41, align 4
  %42 = getelementptr inbounds nuw i8, ptr %29, i64 16
  store i8 1, ptr %42, align 8
  %43 = getelementptr inbounds nuw i8, ptr %0, i64 32
  %44 = load ptr, ptr %43, align 8
  %.not.i = icmp eq ptr %44, null
  br i1 %.not.i, label %tvb_new_with_subset.exit, label %45

45:                                               ; preds = %26
  %46 = zext i32 %28 to i64
  %47 = getelementptr i8, ptr %44, i64 %46
  %48 = getelementptr inbounds nuw i8, ptr %29, i64 32
  store ptr %47, ptr %48, align 8
  br label %tvb_new_with_subset.exit

tvb_new_with_subset.exit:                         ; preds = %26, %45
  %49 = getelementptr inbounds nuw i8, ptr %0, i64 24
  %50 = load ptr, ptr %49, align 8
  %51 = getelementptr inbounds nuw i8, ptr %29, i64 24
  store ptr %50, ptr %51, align 8
  call void @tvb_add_to_chain(ptr noundef nonnull %0, ptr noundef %29)
  call void @llvm.lifetime.end.p0(i64 4, ptr nonnull %6) #5
  call void @llvm.lifetime.end.p0(i64 4, ptr nonnull %5) #5
  ret ptr %29
}